; ModuleID = 'source-C-CXX/11/449.cpp'
source_filename = "source-C-CXX/11/449.cpp"
target datalayout = "e-m:e-p270:32:32-p271:32:32-p272:64:64-i64:64-f80:128-n8:16:32:64-S128"
target triple = "x86_64-pc-linux-gnu"

%"class.std::ios_base::Init" = type { i8 }
%"class.std::basic_istream" = type { i32 (...)**, i64, %"class.std::basic_ios" }
%"class.std::basic_ios" = type { %"class.std::ios_base", %"class.std::basic_ostream"*, i8, i8, %"class.std::basic_streambuf"*, %"class.std::ctype"*, %"class.std::num_put"*, %"class.std::num_get"* }
%"class.std::ios_base" = type { i32 (...)**, i64, i64, i32, i32, i32, %"struct.std::ios_base::_Callback_list"*, %"struct.std::ios_base::_Words", [8 x %"struct.std::ios_base::_Words"], i32, %"struct.std::ios_base::_Words"*, %"class.std::locale" }
%"struct.std::ios_base::_Callback_list" = type { %"struct.std::ios_base::_Callback_list"*, void (i32, %"class.std::ios_base"*, i32)*, i32, i32 }
%"struct.std::ios_base::_Words" = type { i8*, i64 }
%"class.std::locale" = type { %"class.std::locale::_Impl"* }
%"class.std::locale::_Impl" = type { i32, %"class.std::locale::facet"**, i64, %"class.std::locale::facet"**, i8** }
%"class.std::locale::facet" = type <{ i32 (...)**, i32, [4 x i8] }>
%"class.std::basic_ostream" = type { i32 (...)**, %"class.std::basic_ios" }
%"class.std::basic_streambuf" = type { i32 (...)**, i8*, i8*, i8*, i8*, i8*, i8*, %"class.std::locale" }
%"class.std::ctype" = type <{ %"class.std::locale::facet.base", [4 x i8], %struct.__locale_struct*, i8, [7 x i8], i32*, i32*, i16*, i8, [256 x i8], [256 x i8], i8, [6 x i8] }>
%"class.std::locale::facet.base" = type <{ i32 (...)**, i32 }>
%struct.__locale_struct = type { [13 x %struct.__locale_data*], i16*, i32*, i32*, [13 x i8*] }
%struct.__locale_data = type opaque
%"class.std::num_put" = type { %"class.std::locale::facet.base", [4 x i8] }
%"class.std::num_get" = type { %"class.std::locale::facet.base", [4 x i8] }

@_ZStL8__ioinit = internal global %"class.std::ios_base::Init" zeroinitializer, align 1
@__dso_handle = external hidden global i8
@_ZSt3cin = external global %"class.std::basic_istream", align 8
@_ZSt4cout = external global %"class.std::basic_ostream", align 8
@llvm.global_ctors = appending global [1 x { i32, void ()*, i8* }] [{ i32, void ()*, i8* } { i32 65535, void ()* @_GLOBAL__sub_I_449.cpp, i8* null }]

declare void @_ZNSt8ios_base4InitC1Ev(%"class.std::ios_base::Init"* nonnull align 1 dereferenceable(1)) unnamed_addr #0

; Function Attrs: nounwind
declare void @_ZNSt8ios_base4InitD1Ev(%"class.std::ios_base::Init"* nonnull align 1 dereferenceable(1)) unnamed_addr #1

; Function Attrs: nofree nounwind
declare i32 @__cxa_atexit(void (i8*)*, i8*, i8*) local_unnamed_addr #2

; Function Attrs: mustprogress norecurse sspstrong uwtable
define dso_local i32 @main() local_unnamed_addr #3 {
  %1 = alloca [16 x i32], align 16
  %2 = bitcast [16 x i32]* %1 to i8*
  %3 = getelementptr inbounds [16 x i32], [16 x i32]* %1, i64 0, i64 0
  br label %4

4:                                                ; preds = %0, %128
  call void @llvm.lifetime.start.p0i8(i64 64, i8* nonnull %2) #8
  %5 = call nonnull align 8 dereferenceable(16) %"class.std::basic_istream"* @_ZNSirsERi(%"class.std::basic_istream"* nonnull align 8 dereferenceable(16) @_ZSt3cin, i32* nonnull align 4 dereferenceable(4) %3)
  %6 = load i32, i32* %3, align 16, !tbaa !5
  %7 = icmp eq i32 %6, -1
  br i1 %7, label %8, label %9

8:                                                ; preds = %4
  call void @llvm.lifetime.end.p0i8(i64 64, i8* nonnull %2) #8
  br label %132

9:                                                ; preds = %4
  %10 = icmp eq i32 %6, 0
  br i1 %10, label %100, label %17

11:                                               ; preds = %17
  %12 = trunc i64 %19 to i32
  %13 = icmp sgt i32 %12, 1
  br i1 %13, label %14, label %100

14:                                               ; preds = %11
  %15 = and i64 %18, 4294967295
  %16 = and i64 %19, 4294967295
  br label %28

17:                                               ; preds = %9, %17
  %18 = phi i64 [ %19, %17 ], [ 0, %9 ]
  %19 = add nuw nsw i64 %18, 1
  %20 = getelementptr inbounds [16 x i32], [16 x i32]* %1, i64 0, i64 %19
  %21 = call nonnull align 8 dereferenceable(16) %"class.std::basic_istream"* @_ZNSirsERi(%"class.std::basic_istream"* nonnull align 8 dereferenceable(16) @_ZSt3cin, i32* nonnull align 4 dereferenceable(4) %20)
  %22 = load i32, i32* %20, align 4, !tbaa !5
  %23 = icmp eq i32 %22, 0
  br i1 %23, label %11, label %17, !llvm.loop !9

24:                                               ; preds = %86, %79
  %25 = phi i32 [ %81, %79 ], [ %97, %86 ]
  %26 = add nuw nsw i64 %30, 1
  %27 = icmp eq i64 %34, %15
  br i1 %27, label %100, label %28, !llvm.loop !11

28:                                               ; preds = %24, %14
  %29 = phi i64 [ 0, %14 ], [ %34, %24 ]
  %30 = phi i64 [ 1, %14 ], [ %26, %24 ]
  %31 = phi i32 [ 0, %14 ], [ %25, %24 ]
  %32 = xor i64 %29, -1
  %33 = add nsw i64 %16, %32
  %34 = add nuw nsw i64 %29, 1
  %35 = getelementptr inbounds [16 x i32], [16 x i32]* %1, i64 0, i64 %29
  %36 = load i32, i32* %35, align 4, !tbaa !5
  %37 = sub i32 0, %36
  %38 = mul i32 %36, -2
  %39 = icmp ult i64 %33, 8
  br i1 %39, label %83, label %40

40:                                               ; preds = %28
  %41 = and i64 %33, -8
  %42 = add i64 %30, %41
  %43 = insertelement <4 x i32> <i32 poison, i32 0, i32 0, i32 0>, i32 %31, i32 0
  %44 = insertelement <4 x i32> poison, i32 %37, i32 0
  %45 = shufflevector <4 x i32> %44, <4 x i32> poison, <4 x i32> zeroinitializer
  %46 = insertelement <4 x i32> poison, i32 %37, i32 0
  %47 = shufflevector <4 x i32> %46, <4 x i32> poison, <4 x i32> zeroinitializer
  %48 = insertelement <4 x i32> poison, i32 %38, i32 0
  %49 = shufflevector <4 x i32> %48, <4 x i32> poison, <4 x i32> zeroinitializer
  %50 = insertelement <4 x i32> poison, i32 %38, i32 0
  %51 = shufflevector <4 x i32> %50, <4 x i32> poison, <4 x i32> zeroinitializer
  br label %52

52:                                               ; preds = %52, %40
  %53 = phi i64 [ 0, %40 ], [ %77, %52 ]
  %54 = phi <4 x i32> [ %43, %40 ], [ %75, %52 ]
  %55 = phi <4 x i32> [ zeroinitializer, %40 ], [ %76, %52 ]
  %56 = add i64 %30, %53
  %57 = getelementptr inbounds [16 x i32], [16 x i32]* %1, i64 0, i64 %56
  %58 = bitcast i32* %57 to <4 x i32>*
  %59 = load <4 x i32>, <4 x i32>* %58, align 4, !tbaa !5
  %60 = getelementptr inbounds i32, i32* %57, i64 4
  %61 = bitcast i32* %60 to <4 x i32>*
  %62 = load <4 x i32>, <4 x i32>* %61, align 4, !tbaa !5
  %63 = mul <4 x i32> %59, <i32 -2, i32 -2, i32 -2, i32 -2>
  %64 = mul <4 x i32> %62, <i32 -2, i32 -2, i32 -2, i32 -2>
  %65 = icmp eq <4 x i32> %63, %45
  %66 = icmp eq <4 x i32> %64, %47
  %67 = sub <4 x i32> zeroinitializer, %59
  %68 = sub <4 x i32> zeroinitializer, %62
  %69 = icmp eq <4 x i32> %49, %67
  %70 = icmp eq <4 x i32> %51, %68
  %71 = or <4 x i1> %65, %69
  %72 = or <4 x i1> %66, %70
  %73 = zext <4 x i1> %71 to <4 x i32>
  %74 = zext <4 x i1> %72 to <4 x i32>
  %75 = add <4 x i32> %54, %73
  %76 = add <4 x i32> %55, %74
  %77 = add nuw i64 %53, 8
  %78 = icmp eq i64 %77, %41
  br i1 %78, label %79, label %52, !llvm.loop !12

79:                                               ; preds = %52
  %80 = add <4 x i32> %76, %75
  %81 = call i32 @llvm.vector.reduce.add.v4i32(<4 x i32> %80)
  %82 = icmp eq i64 %33, %41
  br i1 %82, label %24, label %83

83:                                               ; preds = %28, %79
  %84 = phi i64 [ %30, %28 ], [ %42, %79 ]
  %85 = phi i32 [ %31, %28 ], [ %81, %79 ]
  br label %86

86:                                               ; preds = %83, %86
  %87 = phi i64 [ %98, %86 ], [ %84, %83 ]
  %88 = phi i32 [ %97, %86 ], [ %85, %83 ]
  %89 = getelementptr inbounds [16 x i32], [16 x i32]* %1, i64 0, i64 %87
  %90 = load i32, i32* %89, align 4, !tbaa !5
  %91 = mul i32 %90, -2
  %92 = icmp eq i32 %91, %37
  %93 = sub i32 0, %90
  %94 = icmp eq i32 %38, %93
  %95 = or i1 %92, %94
  %96 = zext i1 %95 to i32
  %97 = add nsw i32 %88, %96
  %98 = add nuw nsw i64 %87, 1
  %99 = icmp eq i64 %98, %16
  br i1 %99, label %24, label %86, !llvm.loop !14

100:                                              ; preds = %24, %9, %11
  %101 = phi i32 [ 0, %11 ], [ 0, %9 ], [ %25, %24 ]
  %102 = call nonnull align 8 dereferenceable(8) %"class.std::basic_ostream"* @_ZNSolsEi(%"class.std::basic_ostream"* nonnull align 8 dereferenceable(8) @_ZSt4cout, i32 %101)
  %103 = bitcast %"class.std::basic_ostream"* %102 to i8**
  %104 = load i8*, i8** %103, align 8, !tbaa !16
  %105 = getelementptr i8, i8* %104, i64 -24
  %106 = bitcast i8* %105 to i64*
  %107 = load i64, i64* %106, align 8
  %108 = bitcast %"class.std::basic_ostream"* %102 to i8*
  %109 = add nsw i64 %107, 240
  %110 = getelementptr inbounds i8, i8* %108, i64 %109
  %111 = bitcast i8* %110 to %"class.std::ctype"**
  %112 = load %"class.std::ctype"*, %"class.std::ctype"** %111, align 8, !tbaa !18
  %113 = icmp eq %"class.std::ctype"* %112, null
  br i1 %113, label %114, label %115

114:                                              ; preds = %100
  call void @_ZSt16__throw_bad_castv() #9
  unreachable

115:                                              ; preds = %100
  %116 = getelementptr inbounds %"class.std::ctype", %"class.std::ctype"* %112, i64 0, i32 8
  %117 = load i8, i8* %116, align 8, !tbaa !22
  %118 = icmp eq i8 %117, 0
  br i1 %118, label %122, label %119

119:                                              ; preds = %115
  %120 = getelementptr inbounds %"class.std::ctype", %"class.std::ctype"* %112, i64 0, i32 9, i64 10
  %121 = load i8, i8* %120, align 1, !tbaa !24
  br label %128

122:                                              ; preds = %115
  call void @_ZNKSt5ctypeIcE13_M_widen_initEv(%"class.std::ctype"* nonnull align 8 dereferenceable(570) %112)
  %123 = bitcast %"class.std::ctype"* %112 to i8 (%"class.std::ctype"*, i8)***
  %124 = load i8 (%"class.std::ctype"*, i8)**, i8 (%"class.std::ctype"*, i8)*** %123, align 8, !tbaa !16
  %125 = getelementptr inbounds i8 (%"class.std::ctype"*, i8)*, i8 (%"class.std::ctype"*, i8)** %124, i64 6
  %126 = load i8 (%"class.std::ctype"*, i8)*, i8 (%"class.std::ctype"*, i8)** %125, align 8
  %127 = call signext i8 %126(%"class.std::ctype"* nonnull align 8 dereferenceable(570) %112, i8 signext 10)
  br label %128

128:                                              ; preds = %122, %119
  %129 = phi i8 [ %121, %119 ], [ %127, %122 ]
  %130 = call nonnull align 8 dereferenceable(8) %"class.std::basic_ostream"* @_ZNSo3putEc(%"class.std::basic_ostream"* nonnull align 8 dereferenceable(8) %102, i8 signext %129)
  %131 = call nonnull align 8 dereferenceable(8) %"class.std::basic_ostream"* @_ZNSo5flushEv(%"class.std::basic_ostream"* nonnull align 8 dereferenceable(8) %130)
  call void @llvm.lifetime.end.p0i8(i64 64, i8* nonnull %2) #8
  br i1 %7, label %132, label %4, !llvm.loop !25

132:                                              ; preds = %128, %8
  ret i32 0
}

; Function Attrs: argmemonly mustprogress nofree nosync nounwind willreturn
declare void @llvm.lifetime.start.p0i8(i64 immarg, i8* nocapture) #4

declare nonnull align 8 dereferenceable(16) %"class.std::basic_istream"* @_ZNSirsERi(%"class.std::basic_istream"* nonnull align 8 dereferenceable(16), i32* nonnull align 4 dereferenceable(4)) local_unnamed_addr #0

declare nonnull align 8 dereferenceable(8) %"class.std::basic_ostream"* @_ZNSolsEi(%"class.std::basic_ostream"* nonnull align 8 dereferenceable(8), i32) local_unnamed_addr #0

; Function Attrs: argmemonly mustprogress nofree nosync nounwind willreturn
declare void @llvm.lifetime.end.p0i8(i64 immarg, i8* nocapture) #4

declare nonnull align 8 dereferenceable(8) %"class.std::basic_ostream"* @_ZNSo3putEc(%"class.std::basic_ostream"* nonnull align 8 dereferenceable(8), i8 signext) local_unnamed_addr #0

declare nonnull align 8 dereferenceable(8) %"class.std::basic_ostream"* @_ZNSo5flushEv(%"class.std::basic_ostream"* nonnull align 8 dereferenceable(8)) local_unnamed_addr #0

; Function Attrs: noreturn
declare void @_ZSt16__throw_bad_castv() local_unnamed_addr #5

declare void @_ZNKSt5ctypeIcE13_M_widen_initEv(%"class.std::ctype"* nonnull align 8 dereferenceable(570)) local_unnamed_addr #0

; Function Attrs: sspstrong uwtable
define internal void @_GLOBAL__sub_I_449.cpp() #6 section ".text.startup" {
  tail call void @_ZNSt8ios_base4InitC1Ev(%"class.std::ios_base::Init"* nonnull align 1 dereferenceable(1) @_ZStL8__ioinit)
  %1 = tail call i32 @__cxa_atexit(void (i8*)* bitcast (void (%"class.std::ios_base::Init"*)* @_ZNSt8ios_base4InitD1Ev to void (i8*)*), i8* getelementptr inbounds (%"class.std::ios_base::Init", %"class.std::ios_base::Init"* @_ZStL8__ioinit, i64 0, i32 0), i8* nonnull @__dso_handle) #8
  ret void
}

; Function Attrs: nofree nosync nounwind readnone willreturn
declare i32 @llvm.vector.reduce.add.v4i32(<4 x i32>) #7


!llvm.module.flags = !{!0, !1, !2, !3}
!llvm.ident = !{!4}

!0 = !{i32 1, !"wchar_size", i32 4}
!1 = !{i32 7, !"PIC Level", i32 2}
!2 = !{i32 7, !"PIE Level", i32 2}
!3 = !{i32 7, !"uwtable", i32 1}
!4 = !{!"clang version 13.0.0"}
!5 = !{!6, !6, i64 0}
!6 = !{!"int", !7, i64 0}
!7 = !{!"omnipotent char", !8, i64 0}
!8 = !{!"Simple C++ TBAA"}
!9 = distinct !{!9, !10}
!10 = !{!"llvm.loop.mustprogress"}
!11 = distinct !{!11, !10}
!12 = distinct !{!12, !10, !13}
!13 = !{!"llvm.loop.isvectorized", i32 1}
!14 = distinct !{!14, !10, !15, !13}
!15 = !{!"llvm.loop.unroll.runtime.disable"}
!16 = !{!17, !17, i64 0}
!17 = !{!"vtable pointer", !8, i64 0}
!18 = !{!19, !20, i64 240}
!19 = !{!"_ZTSSt9basic_iosIcSt11char_traitsIcEE", !20, i64 216, !7, i64 224, !21, i64 225, !20, i64 232, !20, i64 240, !20, i64 248, !20, i64 256}
!20 = !{!"any pointer", !7, i64 0}
!21 = !{!"bool", !7, i64 0}
!22 = !{!23, !7, i64 56}
!23 = !{!"_ZTSSt5ctypeIcE", !20, i64 16, !21, i64 24, !20, i64 32, !20, i64 40, !20, i64 48, !7, i64 56, !7, i64 57, !7, i64 313, !7, i64 569}
!24 = !{!7, !7, i64 0}
!25 = distinct !{!25, !10}
